target datalayout = "e-m:e-p270:32:32-p271:32:32-p272:64:64-i64:64-i128:128-f80:128-n8:16:32:64-S128"
target triple = "x86_64-pc-linux-gnu"

; Function Attrs: alwaysinline nounwind willreturn memory(none) uwtable
define internal zeroext i16 @av_bswap16(i16 noundef zeroext %0) #7 {
  %2 = alloca i16, align 2
  store i16 %0, ptr %2, align 2, !tbaa !62
  %3 = load i16, ptr %2, align 2, !tbaa !62
  %4 = zext i16 %3 to i32
  %5 = ashr i32 %4, 8
  %6 = load i16, ptr %2, align 2, !tbaa !62
  %7 = zext i16 %6 to i32
  %8 = shl i32 %7, 8
  %9 = or i32 %5, %8
  %10 = trunc i32 %9 to i16
  store i16 %10, ptr %2, align 2, !tbaa !62
  %11 = load i16, ptr %2, align 2, !tbaa !62
  ret i16 %11
}

; Function Attrs: nounwind uwtable
define internal void @bayer_gbrg16be_to_rgb48_copy(ptr noundef %0, i32 noundef %1, ptr noundef %2, i32 noundef %3, i32 noundef %4) #0 {
  %6 = alloca ptr, align 8
  %7 = alloca i32, align 4
  %8 = alloca ptr, align 8
  %9 = alloca i32, align 4
  %10 = alloca i32, align 4
  %11 = alloca ptr, align 8
  %12 = alloca i32, align 4
  store ptr %0, ptr %6, align 8, !tbaa !4
  store i32 %1, ptr %7, align 4, !tbaa !9
  store ptr %2, ptr %8, align 8, !tbaa !4
  store i32 %3, ptr %9, align 4, !tbaa !9
  store i32 %4, ptr %10, align 4, !tbaa !9
  call void @llvm.lifetime.start.p0(i64 8, ptr %11) #11
  %13 = load ptr, ptr %8, align 8, !tbaa !4
  store ptr %13, ptr %11, align 8, !tbaa !60
  call void @llvm.lifetime.start.p0(i64 4, ptr %12) #11
  %14 = load i32, ptr %9, align 4, !tbaa !9
  %15 = sdiv i32 %14, 2
  store i32 %15, ptr %9, align 4, !tbaa !9
  store i32 0, ptr %12, align 4, !tbaa !9
  br label %16

16:                                               ; preds = %162, %5
  %17 = load i32, ptr %12, align 4, !tbaa !9
  %18 = load i32, ptr %10, align 4, !tbaa !9
  %19 = icmp slt i32 %17, %18
  br i1 %19, label %20, label %165

20:                                               ; preds = %16
  %21 = load ptr, ptr %6, align 8, !tbaa !4
  %22 = load i32, ptr %7, align 4, !tbaa !9
  %23 = mul nsw i32 1, %22
  %24 = add nsw i32 %23, 0
  %25 = sext i32 %24 to i64
  %26 = getelementptr inbounds i8, ptr %21, i64 %25
  %27 = load i16, ptr %26, align 1, !tbaa !67
  %28 = call zeroext i16 @av_bswap16(i16 noundef zeroext %27) #13
  %29 = load ptr, ptr %11, align 8, !tbaa !60
  %30 = load i32, ptr %9, align 4, !tbaa !9
  %31 = mul nsw i32 1, %30
  %32 = add nsw i32 %31, 0
  %33 = add nsw i32 %32, 0
  %34 = sext i32 %33 to i64
  %35 = getelementptr inbounds i16, ptr %29, i64 %34
  store i16 %28, ptr %35, align 2, !tbaa !62
  %36 = load ptr, ptr %11, align 8, !tbaa !60
  %37 = load i32, ptr %9, align 4, !tbaa !9
  %38 = mul nsw i32 1, %37
  %39 = add nsw i32 %38, 3
  %40 = add nsw i32 %39, 0
  %41 = sext i32 %40 to i64
  %42 = getelementptr inbounds i16, ptr %36, i64 %41
  store i16 %28, ptr %42, align 2, !tbaa !62
  %43 = load ptr, ptr %11, align 8, !tbaa !60
  %44 = load i32, ptr %9, align 4, !tbaa !9
  %45 = mul nsw i32 0, %44
  %46 = add nsw i32 %45, 3
  %47 = add nsw i32 %46, 0
  %48 = sext i32 %47 to i64
  %49 = getelementptr inbounds i16, ptr %43, i64 %48
  store i16 %28, ptr %49, align 2, !tbaa !62
  %50 = load ptr, ptr %11, align 8, !tbaa !60
  %51 = load i32, ptr %9, align 4, !tbaa !9
  %52 = mul nsw i32 0, %51
  %53 = add nsw i32 %52, 0
  %54 = add nsw i32 %53, 0
  %55 = sext i32 %54 to i64
  %56 = getelementptr inbounds i16, ptr %50, i64 %55
  store i16 %28, ptr %56, align 2, !tbaa !62
  %57 = load ptr, ptr %6, align 8, !tbaa !4
  %58 = load i32, ptr %7, align 4, !tbaa !9
  %59 = mul nsw i32 0, %58
  %60 = add nsw i32 %59, 0
  %61 = sext i32 %60 to i64
  %62 = getelementptr inbounds i8, ptr %57, i64 %61
  %63 = load i16, ptr %62, align 1, !tbaa !67
  %64 = call zeroext i16 @av_bswap16(i16 noundef zeroext %63) #13
  %65 = load ptr, ptr %11, align 8, !tbaa !60
  %66 = load i32, ptr %9, align 4, !tbaa !9
  %67 = mul nsw i32 0, %66
  %68 = add nsw i32 %67, 0
  %69 = add nsw i32 %68, 1
  %70 = sext i32 %69 to i64
  %71 = getelementptr inbounds i16, ptr %65, i64 %70
  store i16 %64, ptr %71, align 2, !tbaa !62
  %72 = load ptr, ptr %6, align 8, !tbaa !4
  %73 = load i32, ptr %7, align 4, !tbaa !9
  %74 = mul nsw i32 1, %73
  %75 = add nsw i32 %74, 2
  %76 = sext i32 %75 to i64
  %77 = getelementptr inbounds i8, ptr %72, i64 %76
  %78 = load i16, ptr %77, align 1, !tbaa !67
  %79 = call zeroext i16 @av_bswap16(i16 noundef zeroext %78) #13
  %80 = load ptr, ptr %11, align 8, !tbaa !60
  %81 = load i32, ptr %9, align 4, !tbaa !9
  %82 = mul nsw i32 1, %81
  %83 = add nsw i32 %82, 3
  %84 = add nsw i32 %83, 1
  %85 = sext i32 %84 to i64
  %86 = getelementptr inbounds i16, ptr %80, i64 %85
  store i16 %79, ptr %86, align 2, !tbaa !62
  %87 = load ptr, ptr %6, align 8, !tbaa !4
  %88 = load i32, ptr %7, align 4, !tbaa !9
  %89 = mul nsw i32 0, %88
  %90 = add nsw i32 %89, 0
  %91 = sext i32 %90 to i64
  %92 = getelementptr inbounds i8, ptr %87, i64 %91
  %93 = load i16, ptr %92, align 1, !tbaa !67
  %94 = call zeroext i16 @av_bswap16(i16 noundef zeroext %93) #13
  %95 = zext i16 %94 to i32
  %96 = load ptr, ptr %6, align 8, !tbaa !4
  %97 = load i32, ptr %7, align 4, !tbaa !9
  %98 = mul nsw i32 1, %97
  %99 = add nsw i32 %98, 2
  %100 = sext i32 %99 to i64
  %101 = getelementptr inbounds i8, ptr %96, i64 %100
  %102 = load i16, ptr %101, align 1, !tbaa !67
  %103 = call zeroext i16 @av_bswap16(i16 noundef zeroext %102) #13
  %104 = zext i16 %103 to i32
  %105 = add i32 %95, %104
  %106 = lshr i32 %105, 1
  %107 = trunc i32 %106 to i16
  %108 = load ptr, ptr %11, align 8, !tbaa !60
  %109 = load i32, ptr %9, align 4, !tbaa !9
  %110 = mul nsw i32 1, %109
  %111 = add nsw i32 %110, 0
  %112 = add nsw i32 %111, 1
  %113 = sext i32 %112 to i64
  %114 = getelementptr inbounds i16, ptr %108, i64 %113
  store i16 %107, ptr %114, align 2, !tbaa !62
  %115 = load ptr, ptr %11, align 8, !tbaa !60
  %116 = load i32, ptr %9, align 4, !tbaa !9
  %117 = mul nsw i32 0, %116
  %118 = add nsw i32 %117, 3
  %119 = add nsw i32 %118, 1
  %120 = sext i32 %119 to i64
  %121 = getelementptr inbounds i16, ptr %115, i64 %120
  store i16 %107, ptr %121, align 2, !tbaa !62
  %122 = load ptr, ptr %6, align 8, !tbaa !4
  %123 = load i32, ptr %7, align 4, !tbaa !9
  %124 = mul nsw i32 0, %123
  %125 = add nsw i32 %124, 2
  %126 = sext i32 %125 to i64
  %127 = getelementptr inbounds i8, ptr %122, i64 %126
  %128 = load i16, ptr %127, align 1, !tbaa !67
  %129 = call zeroext i16 @av_bswap16(i16 noundef zeroext %128) #13
  %130 = load ptr, ptr %11, align 8, !tbaa !60
  %131 = load i32, ptr %9, align 4, !tbaa !9
  %132 = mul nsw i32 1, %131
  %133 = add nsw i32 %132, 0
  %134 = add nsw i32 %133, 2
  %135 = sext i32 %134 to i64
  %136 = getelementptr inbounds i16, ptr %130, i64 %135
  store i16 %129, ptr %136, align 2, !tbaa !62
  %137 = load ptr, ptr %11, align 8, !tbaa !60
  %138 = load i32, ptr %9, align 4, !tbaa !9
  %139 = mul nsw i32 0, %138
  %140 = add nsw i32 %139, 3
  %141 = add nsw i32 %140, 2
  %142 = sext i32 %141 to i64
  %143 = getelementptr inbounds i16, ptr %137, i64 %142
  store i16 %129, ptr %143, align 2, !tbaa !62
  %144 = load ptr, ptr %11, align 8, !tbaa !60
  %145 = load i32, ptr %9, align 4, !tbaa !9
  %146 = mul nsw i32 0, %145
  %147 = add nsw i32 %146, 0
  %148 = add nsw i32 %147, 2
  %149 = sext i32 %148 to i64
  %150 = getelementptr inbounds i16, ptr %144, i64 %149
  store i16 %129, ptr %150, align 2, !tbaa !62
  %151 = load ptr, ptr %11, align 8, !tbaa !60
  %152 = load i32, ptr %9, align 4, !tbaa !9
  %153 = mul nsw i32 1, %152
  %154 = add nsw i32 %153, 3
  %155 = add nsw i32 %154, 2
  %156 = sext i32 %155 to i64
  %157 = getelementptr inbounds i16, ptr %151, i64 %156
  store i16 %129, ptr %157, align 2, !tbaa !62
  %158 = load ptr, ptr %6, align 8, !tbaa !4
  %159 = getelementptr inbounds i8, ptr %158, i64 4
  store ptr %159, ptr %6, align 8, !tbaa !4
  %160 = load ptr, ptr %11, align 8, !tbaa !60
  %161 = getelementptr inbounds i16, ptr %160, i64 6
  store ptr %161, ptr %11, align 8, !tbaa !60
  br label %162

162:                                              ; preds = %20
  %163 = load i32, ptr %12, align 4, !tbaa !9
  %164 = add nsw i32 %163, 2
  store i32 %164, ptr %12, align 4, !tbaa !9
  br label %16, !llvm.loop !284

165:                                              ; preds = %16
  call void @llvm.lifetime.end.p0(i64 4, ptr %12) #11
  call void @llvm.lifetime.end.p0(i64 8, ptr %11) #11
  ret void
}