; Function Attrs: nofree norecurse nosync nounwind memory(argmem: readwrite) uwtable
define internal void @bayer_gbrg16be_to_rgb48_copy(ptr noundef readonly captures(none) %0, i32 noundef %1, ptr noundef writeonly captures(none) %2, i32 noundef %3, i32 noundef %4) unnamed_addr #0 {
  %6 = icmp sgt i32 %4, 0
  br i1 %6, label %.lr.ph, label %._crit_edge

.lr.ph:                                           ; preds = %5
  %7 = sdiv i32 %3, 2
  %8 = sext i32 %1 to i64
  %9 = sext i32 %7 to i64
  br label %10

10:                                               ; preds = %.lr.ph, %10
  %.046 = phi i32 [ 0, %.lr.ph ], [ %44, %10 ]
  %.04245 = phi ptr [ %2, %.lr.ph ], [ %43, %10 ]
  %.04344 = phi ptr [ %0, %.lr.ph ], [ %42, %10 ]
  %11 = getelementptr inbounds i8, ptr %.04344, i64 %8
  %12 = load i16, ptr %11, align 1, !tbaa !61
  %13 = tail call i16 @llvm.bswap.i16(i16 %12)
  %14 = getelementptr i16, ptr %.04245, i64 %9
  store i16 %13, ptr %14, align 2, !tbaa !56
  %15 = getelementptr i8, ptr %14, i64 6
  store i16 %13, ptr %15, align 2, !tbaa !56
  %16 = getelementptr inbounds nuw i8, ptr %.04245, i64 6
  store i16 %13, ptr %16, align 2, !tbaa !56
  store i16 %13, ptr %.04245, align 2, !tbaa !56
  %17 = load i16, ptr %.04344, align 1, !tbaa !61
  %18 = tail call i16 @llvm.bswap.i16(i16 %17)
  %19 = getelementptr inbounds nuw i8, ptr %.04245, i64 2
  store i16 %18, ptr %19, align 2, !tbaa !56
  %20 = getelementptr i8, ptr %11, i64 2
  %21 = load i16, ptr %20, align 1, !tbaa !61
  %22 = tail call i16 @llvm.bswap.i16(i16 %21)
  %23 = getelementptr i8, ptr %14, i64 8
  store i16 %22, ptr %23, align 2, !tbaa !56
  %24 = load i16, ptr %.04344, align 1, !tbaa !61
  %25 = tail call i16 @llvm.bswap.i16(i16 %24)
  %26 = zext i16 %25 to i32
  %27 = load i16, ptr %20, align 1, !tbaa !61
  %28 = tail call i16 @llvm.bswap.i16(i16 %27)
  %29 = zext i16 %28 to i32
  %30 = add nuw nsw i32 %29, %26
  %31 = lshr i32 %30, 1
  %32 = trunc nuw i32 %31 to i16
  %33 = getelementptr i8, ptr %14, i64 2
  store i16 %32, ptr %33, align 2, !tbaa !56
  %34 = getelementptr inbounds nuw i8, ptr %.04245, i64 8
  store i16 %32, ptr %34, align 2, !tbaa !56
  %35 = getelementptr inbounds nuw i8, ptr %.04344, i64 2
  %36 = load i16, ptr %35, align 1, !tbaa !61
  %37 = tail call i16 @llvm.bswap.i16(i16 %36)
  %38 = getelementptr i8, ptr %14, i64 4
  store i16 %37, ptr %38, align 2, !tbaa !56
  %39 = getelementptr inbounds nuw i8, ptr %.04245, i64 10
  store i16 %37, ptr %39, align 2, !tbaa !56
  %40 = getelementptr inbounds nuw i8, ptr %.04245, i64 4
  store i16 %37, ptr %40, align 2, !tbaa !56
  %41 = getelementptr i8, ptr %14, i64 10
  store i16 %37, ptr %41, align 2, !tbaa !56
  %42 = getelementptr inbounds nuw i8, ptr %.04344, i64 4
  %43 = getelementptr inbounds nuw i8, ptr %.04245, i64 12
  %44 = add nuw nsw i32 %.046, 2
  %45 = icmp slt i32 %44, %4
  br i1 %45, label %10, label %._crit_edge, !llvm.loop !276

._crit_edge:                                      ; preds = %10, %5
  ret void
}